target datalayout = "e-m:e-p270:32:32-p271:32:32-p272:64:64-i64:64-i128:128-f80:128-n8:16:32:64-S128"
target triple = "x86_64-pc-linux-gnu"

%struct._zend_json_globals = type { i32, i32, i32 }
%struct._zval_struct = type { %union._zend_value, %union.anon, %union.anon.2 }
%union._zend_value = type { i64 }
%union.anon = type { i32 }
%union.anon.2 = type { i32 }
%struct._php_json_parser = type { %struct._php_json_scanner, ptr, i32, i32, %struct._php_json_parser_methods }
%struct._php_json_scanner = type { ptr, ptr, ptr, ptr, ptr, ptr, ptr, %struct._zval_struct, i32, i32, i32, i32, i32, i32 }
%struct._php_json_parser_methods = type { ptr, ptr, ptr, ptr, ptr, ptr, ptr, ptr }

@json_globals = dso_local global %struct._zend_json_globals zeroinitializer, align 4
@php_json_exception_ce = dso_local global ptr null, align 8
@.str.58 = private unnamed_addr constant [9 x i8] c"No error\00", align 1
@.str.59 = private unnamed_addr constant [29 x i8] c"Maximum stack depth exceeded\00", align 1
@.str.60 = private unnamed_addr constant [43 x i8] c"State mismatch (invalid or malformed JSON)\00", align 1
@.str.61 = private unnamed_addr constant [54 x i8] c"Control character error, possibly incorrectly encoded\00", align 1
@.str.62 = private unnamed_addr constant [13 x i8] c"Syntax error\00", align 1
@.str.63 = private unnamed_addr constant [57 x i8] c"Malformed UTF-8 characters, possibly incorrectly encoded\00", align 1
@.str.64 = private unnamed_addr constant [19 x i8] c"Recursion detected\00", align 1
@.str.65 = private unnamed_addr constant [35 x i8] c"Inf and NaN cannot be JSON encoded\00", align 1
@.str.66 = private unnamed_addr constant [22 x i8] c"Type is not supported\00", align 1
@.str.67 = private unnamed_addr constant [37 x i8] c"The decoded property name is invalid\00", align 1
@.str.68 = private unnamed_addr constant [51 x i8] c"Single unpaired UTF-16 surrogate in unicode escape\00", align 1
@.str.69 = private unnamed_addr constant [47 x i8] c"Non-backed enums have no default serialization\00", align 1
@.str.70 = private unnamed_addr constant [14 x i8] c"Unknown error\00", align 1

; Function Attrs: nounwind uwtable
define internal ptr @php_json_get_error_msg(i32 noundef %0) #0 {
  %2 = alloca ptr, align 8
  %3 = alloca i32, align 4
  store i32 %0, ptr %3, align 4, !tbaa !4
  %4 = load i32, ptr %3, align 4, !tbaa !4
  switch i32 %4, label %17 [
    i32 0, label %5
    i32 1, label %6
    i32 2, label %7
    i32 3, label %8
    i32 4, label %9
    i32 5, label %10
    i32 6, label %11
    i32 7, label %12
    i32 8, label %13
    i32 9, label %14
    i32 10, label %15
    i32 11, label %16
  ]

5:                                                ; preds = %1
  store ptr @.str.58, ptr %2, align 8
  br label %18

6:                                                ; preds = %1
  store ptr @.str.59, ptr %2, align 8
  br label %18

7:                                                ; preds = %1
  store ptr @.str.60, ptr %2, align 8
  br label %18

8:                                                ; preds = %1
  store ptr @.str.61, ptr %2, align 8
  br label %18

9:                                                ; preds = %1
  store ptr @.str.62, ptr %2, align 8
  br label %18

10:                                               ; preds = %1
  store ptr @.str.63, ptr %2, align 8
  br label %18

11:                                               ; preds = %1
  store ptr @.str.64, ptr %2, align 8
  br label %18

12:                                               ; preds = %1
  store ptr @.str.65, ptr %2, align 8
  br label %18

13:                                               ; preds = %1
  store ptr @.str.66, ptr %2, align 8
  br label %18

14:                                               ; preds = %1
  store ptr @.str.67, ptr %2, align 8
  br label %18

15:                                               ; preds = %1
  store ptr @.str.68, ptr %2, align 8
  br label %18

16:                                               ; preds = %1
  store ptr @.str.69, ptr %2, align 8
  br label %18

17:                                               ; preds = %1
  store ptr @.str.70, ptr %2, align 8
  br label %18

18:                                               ; preds = %17, %16, %15, %14, %13, %12, %11, %10, %9, %8, %7, %6, %5
  %19 = load ptr, ptr %2, align 8
  ret ptr %19
}

; Function Attrs: nounwind uwtable
define dso_local i32 @php_json_decode_ex(ptr noundef %0, ptr noundef %1, i64 noundef %2, i64 noundef %3, i64 noundef %4) #0 {
  %6 = alloca i32, align 4
  %7 = alloca ptr, align 8
  %8 = alloca ptr, align 8
  %9 = alloca i64, align 8
  %10 = alloca i64, align 8
  %11 = alloca i64, align 8
  %12 = alloca %struct._php_json_parser, align 8
  %13 = alloca i32, align 4
  %14 = alloca i32, align 4
  store ptr %0, ptr %7, align 8, !tbaa !27
  store ptr %1, ptr %8, align 8, !tbaa !20
  store i64 %2, ptr %9, align 8, !tbaa !22
  store i64 %3, ptr %10, align 8, !tbaa !22
  store i64 %4, ptr %11, align 8, !tbaa !22
  call void @llvm.lifetime.start.p0(i64 176, ptr %12) #14
  %15 = load ptr, ptr %7, align 8, !tbaa !27
  %16 = load ptr, ptr %8, align 8, !tbaa !20
  %17 = load i64, ptr %9, align 8, !tbaa !22
  %18 = load i64, ptr %10, align 8, !tbaa !22
  %19 = trunc i64 %18 to i32
  %20 = load i64, ptr %11, align 8, !tbaa !22
  %21 = trunc i64 %20 to i32
  call void @php_json_parser_init(ptr noundef %12, ptr noundef %15, ptr noundef %16, i64 noundef %17, i32 noundef %19, i32 noundef %21)
  %22 = call i32 @php_json_yyparse(ptr noundef %12)
  %23 = icmp ne i32 %22, 0
  br i1 %23, label %24, label %44

24:                                               ; preds = %5
  call void @llvm.lifetime.start.p0(i64 4, ptr %13) #14
  %25 = call i32 @php_json_parser_error_code(ptr noundef %12)
  store i32 %25, ptr %13, align 4, !tbaa !4
  %26 = load i64, ptr %10, align 8, !tbaa !22
  %27 = and i64 %26, 4194304
  %28 = icmp ne i64 %27, 0
  br i1 %28, label %31, label %29

29:                                               ; preds = %24
  %30 = load i32, ptr %13, align 4, !tbaa !4
  store i32 %30, ptr getelementptr inbounds nuw (%struct._zend_json_globals, ptr @json_globals, i32 0, i32 2), align 4, !tbaa !12
  br label %38

31:                                               ; preds = %24
  %32 = load ptr, ptr @php_json_exception_ce, align 8, !tbaa !8
  %33 = load i32, ptr %13, align 4, !tbaa !4
  %34 = call ptr @php_json_get_error_msg(i32 noundef %33)
  %35 = load i32, ptr %13, align 4, !tbaa !4
  %36 = zext i32 %35 to i64
  %37 = call ptr @zend_throw_exception(ptr noundef %32, ptr noundef %34, i64 noundef %36)
  br label %38

38:                                               ; preds = %31, %29
  br label %39

39:                                               ; preds = %38
  %40 = load ptr, ptr %7, align 8, !tbaa !27
  %41 = getelementptr inbounds nuw %struct._zval_struct, ptr %40, i32 0, i32 1
  store i32 1, ptr %41, align 8, !tbaa !11
  br label %42

42:                                               ; preds = %39
  br label %43

43:                                               ; preds = %42
  store i32 -1, ptr %6, align 4
  store i32 1, ptr %14, align 4
  call void @llvm.lifetime.end.p0(i64 4, ptr %13) #14
  br label %45

44:                                               ; preds = %5
  store i32 0, ptr %6, align 4
  store i32 1, ptr %14, align 4
  br label %45

45:                                               ; preds = %44, %43
  call void @llvm.lifetime.end.p0(i64 176, ptr %12) #14
  %46 = load i32, ptr %6, align 4
  ret i32 %46
}