; Function Attrs: nounwind uwtable
define dso_local range(i32 -1, 1) i32 @php_json_decode_ex(ptr noundef %0, ptr noundef %1, i64 noundef %2, i64 noundef %3, i64 noundef %4) local_unnamed_addr #0 {
  %6 = alloca %struct._php_json_parser, align 8
  call void @llvm.lifetime.start.p0(i64 176, ptr nonnull %6) #13
  %7 = trunc i64 %3 to i32
  %8 = trunc i64 %4 to i32
  call void @php_json_parser_init(ptr noundef nonnull %6, ptr noundef %0, ptr noundef %1, i64 noundef %2, i32 noundef %7, i32 noundef %8) #13
  %9 = call i32 @php_json_yyparse(ptr noundef nonnull %6) #13
  %.not = icmp eq i32 %9, 0
  br i1 %.not, label %22, label %10

10:                                               ; preds = %5
  %11 = call i32 @php_json_parser_error_code(ptr noundef nonnull %6) #13
  %12 = and i64 %3, 4194304
  %.not10 = icmp eq i64 %12, 0
  br i1 %.not10, label %13, label %14

13:                                               ; preds = %10
  store i32 %11, ptr getelementptr inbounds nuw (i8, ptr @json_globals, i64 8), align 4, !tbaa !31
  br label %20

14:                                               ; preds = %10
  %15 = load ptr, ptr @php_json_exception_ce, align 8, !tbaa !29
  %16 = icmp ult i32 %11, 12
  br i1 %16, label %switch.lookup, label %php_json_get_error_msg.exit

switch.lookup:                                    ; preds = %14
  %17 = zext nneg i32 %11 to i64
  %switch.gep = getelementptr inbounds nuw [12 x ptr], ptr @switch.table.zif_json_last_error_msg, i64 0, i64 %17
  %switch.load = load ptr, ptr %switch.gep, align 8
  br label %php_json_get_error_msg.exit

php_json_get_error_msg.exit:                      ; preds = %14, %switch.lookup
  %.0.i = phi ptr [ %switch.load, %switch.lookup ], [ @.str.70, %14 ]
  %18 = zext i32 %11 to i64
  %19 = call ptr @zend_throw_exception(ptr noundef %15, ptr noundef nonnull %.0.i, i64 noundef %18) #13
  br label %20

20:                                               ; preds = %13, %php_json_get_error_msg.exit
  %21 = getelementptr inbounds nuw i8, ptr %0, i64 8
  store i32 1, ptr %21, align 8, !tbaa !28
  br label %22

22:                                               ; preds = %5, %20
  %.0 = phi i32 [ -1, %20 ], [ 0, %5 ]
  call void @llvm.lifetime.end.p0(i64 176, ptr nonnull %6) #13
  ret i32 %.0
}